###############################################################################
#                                                                             #
# IAR C/C++ Compiler V8.10.3.10338/W32 for 8051         03/Jul/2021  17:46:46 #
# Copyright 2004-2011 IAR Systems AB.                                         #
#                                                                             #
#    Core               =  plain                                              #
#    Code model         =  banked                                             #
#    Data model         =  large                                              #
#    Calling convention =  xdata reentrant                                    #
#    Constant location  =  data_rom                                           #
#    Dptr setup         =  1,16                                               #
#    Source file        =  C:\Zigbee\ZStack-CC2530-2.3.0-1.4.0_12\Projects\zs #
#                          tack\Samples\SampleApp\Source\SampleApp.c          #
#    Command line       =  -f C:\Zigbee\ZStack-CC2530-2.3.0-1.4.0_12\Projects #
#                          \zstack\Samples\SampleApp\CC2530DB\..\..\..\Tools\ #
#                          CC2530DB\f8wCoord.cfg (-DCPU32MHZ                  #
#                          -DROOT=__near_func -DMAC_CFG_APP_PENDING_QUEUE=TRU #
#                          E -DZDO_COORDINATOR -DRTR_NWK -DBLINK_LEDS) -f     #
#                          C:\Zigbee\ZStack-CC2530-2.3.0-1.4.0_12\Projects\zs #
#                          tack\Samples\SampleApp\CC2530DB\..\..\..\Tools\CC2 #
#                          530DB\f8wConfig.cfg (-DSECURE=0                    #
#                          -DZG_SECURE_DYNAMIC=0 -DREFLECTOR                  #
#                          -DDEFAULT_CHANLIST=0x00000800                      #
#                          -DZDAPP_CONFIG_PAN_ID=0xFFF1                       #
#                          -DNWK_START_DELAY=100 -DEXTENDED_JOINING_RANDOM_MA #
#                          SK=0x007F -DBEACON_REQUEST_DELAY=100               #
#                          -DBEACON_REQ_DELAY_MASK=0x00FF                     #
#                          -DROUTE_EXPIRY_TIME=30 -DAPSC_ACK_WAIT_DURATION_PO #
#                          LLED=3000 -DNWK_INDIRECT_MSG_TIMEOUT=7             #
#                          -DMAX_RREQ_ENTRIES=8 -DAPSC_MAX_FRAME_RETRIES=3    #
#                          -DNWK_MAX_DATA_RETRIES=2                           #
#                          -DMAX_POLL_FAILURE_RETRIES=2 -DMAX_BCAST=9         #
#                          -DAPS_MAX_GROUPS=16 -DMAX_RTG_ENTRIES=40           #
#                          -DNWK_MAX_BINDING_ENTRIES=4                        #
#                          -DMAX_BINDING_CLUSTER_IDS=4 "-DDEFAULT_KEY={0x01,  #
#                          0x03, 0x05, 0x07, 0x09, 0x0B, 0x0D, 0x0F, 0x00,    #
#                          0x02, 0x04, 0x06, 0x08, 0x0A, 0x0C, 0x0D}"         #
#                          -DMAC_MAX_FRAME_SIZE=116 "-DCONST=const __code"    #
#                          -DGENERIC=__generic -DRFD_RCVC_ALWAYS_ON=FALSE     #
#                          -DPOLL_RATE=1000 -DQUEUED_POLL_RATE=100            #
#                          -DRESPONSE_POLL_RATE=100) -DREJOIN_POLL_RATE=440   #
#                          C:\Zigbee\ZStack-CC2530-2.3.0-1.4.0_12\Projects\zs #
#                          tack\Samples\SampleApp\Source\SampleApp.c -D       #
#                          ZIGBEEPRO -D ZTOOL_P1 -D xMT_TASK -D xMT_SYS_FUNC  #
#                          -D xMT_ZDO_FUNC -D LCD_SUPPORTED=DEBUG -lC         #
#                          C:\Zigbee\ZStack-CC2530-2.3.0-1.4.0_12\Projects\zs #
#                          tack\Samples\SampleApp\CC2530DB\CoordinatorEB-Pro\ #
#                          List\ -lA C:\Zigbee\ZStack-CC2530-2.3.0-1.4.0_12\P #
#                          rojects\zstack\Samples\SampleApp\CC2530DB\Coordina #
#                          torEB-Pro\List\ --diag_suppress Pe001,Pa010 -o     #
#                          C:\Zigbee\ZStack-CC2530-2.3.0-1.4.0_12\Projects\zs #
#                          tack\Samples\SampleApp\CC2530DB\CoordinatorEB-Pro\ #
#                          Obj\ -e --debug --core=plain --dptr=16,1           #
#                          --data_model=large --code_model=banked             #
#                          --calling_convention=xdata_reentrant               #
#                          --place_constants=data_rom --nr_virtual_regs 16    #
#                          -I C:\Zigbee\ZStack-CC2530-2.3.0-1.4.0_12\Projects #
#                          \zstack\Samples\SampleApp\CC2530DB\ -I             #
#                          C:\Zigbee\ZStack-CC2530-2.3.0-1.4.0_12\Projects\zs #
#                          tack\Samples\SampleApp\CC2530DB\..\SOURCE\ -I      #
#                          C:\Zigbee\ZStack-CC2530-2.3.0-1.4.0_12\Projects\zs #
#                          tack\Samples\SampleApp\CC2530DB\..\..\..\ZMAIN\TI2 #
#                          530DB\ -I C:\Zigbee\ZStack-CC2530-2.3.0-1.4.0_12\P #
#                          rojects\zstack\Samples\SampleApp\CC2530DB\..\..\.. #
#                          \..\..\COMPONENTS\MT\ -I                           #
#                          C:\Zigbee\ZStack-CC2530-2.3.0-1.4.0_12\Projects\zs #
#                          tack\Samples\SampleApp\CC2530DB\..\..\..\..\..\COM #
#                          PONENTS\HAL\INCLUDE\ -I C:\Zigbee\ZStack-CC2530-2. #
#                          3.0-1.4.0_12\Projects\zstack\Samples\SampleApp\CC2 #
#                          530DB\..\..\..\..\..\COMPONENTS\HAL\TARGET\CC2530E #
#                          B\ -I C:\Zigbee\ZStack-CC2530-2.3.0-1.4.0_12\Proje #
#                          cts\zstack\Samples\SampleApp\CC2530DB\..\..\..\..\ #
#                          ..\COMPONENTS\OSAL\MCU\CCSOC\ -I                   #
#                          C:\Zigbee\ZStack-CC2530-2.3.0-1.4.0_12\Projects\zs #
#                          tack\Samples\SampleApp\CC2530DB\..\..\..\..\..\COM #
#                          PONENTS\OSAL\INCLUDE\ -I                           #
#                          C:\Zigbee\ZStack-CC2530-2.3.0-1.4.0_12\Projects\zs #
#                          tack\Samples\SampleApp\CC2530DB\..\..\..\..\..\COM #
#                          PONENTS\STACK\AF\ -I C:\Zigbee\ZStack-CC2530-2.3.0 #
#                          -1.4.0_12\Projects\zstack\Samples\SampleApp\CC2530 #
#                          DB\..\..\..\..\..\COMPONENTS\STACK\NWK\ -I         #
#                          C:\Zigbee\ZStack-CC2530-2.3.0-1.4.0_12\Projects\zs #
#                          tack\Samples\SampleApp\CC2530DB\..\..\..\..\..\COM #
#                          PONENTS\STACK\SEC\ -I C:\Zigbee\ZStack-CC2530-2.3. #
#                          0-1.4.0_12\Projects\zstack\Samples\SampleApp\CC253 #
#                          0DB\..\..\..\..\..\COMPONENTS\STACK\SAPI\ -I       #
#                          C:\Zigbee\ZStack-CC2530-2.3.0-1.4.0_12\Projects\zs #
#                          tack\Samples\SampleApp\CC2530DB\..\..\..\..\..\COM #
#                          PONENTS\STACK\SYS\ -I C:\Zigbee\ZStack-CC2530-2.3. #
#                          0-1.4.0_12\Projects\zstack\Samples\SampleApp\CC253 #
#                          0DB\..\..\..\..\..\COMPONENTS\STACK\ZDO\ -I        #
#                          C:\Zigbee\ZStack-CC2530-2.3.0-1.4.0_12\Projects\zs #
#                          tack\Samples\SampleApp\CC2530DB\..\..\..\..\..\COM #
#                          PONENTS\ZMAC\F8W\ -I C:\Zigbee\ZStack-CC2530-2.3.0 #
#                          -1.4.0_12\Projects\zstack\Samples\SampleApp\CC2530 #
#                          DB\..\..\..\..\..\COMPONENTS\ZMAC\ -I              #
#                          C:\Zigbee\ZStack-CC2530-2.3.0-1.4.0_12\Projects\zs #
#                          tack\Samples\SampleApp\CC2530DB\..\..\..\..\..\COM #
#                          PONENTS\SERVICES\SADDR\ -I                         #
#                          C:\Zigbee\ZStack-CC2530-2.3.0-1.4.0_12\Projects\zs #
#                          tack\Samples\SampleApp\CC2530DB\..\..\..\..\..\COM #
#                          PONENTS\SERVICES\SDATA\ -I                         #
#                          C:\Zigbee\ZStack-CC2530-2.3.0-1.4.0_12\Projects\zs #
#                          tack\Samples\SampleApp\CC2530DB\..\..\..\..\..\COM #
#                          PONENTS\MAC\INCLUDE\ -I C:\Zigbee\ZStack-CC2530-2. #
#                          3.0-1.4.0_12\Projects\zstack\Samples\SampleApp\CC2 #
#                          530DB\..\..\..\..\..\COMPONENTS\MAC\HIGH_LEVEL\    #
#                          -I C:\Zigbee\ZStack-CC2530-2.3.0-1.4.0_12\Projects #
#                          \zstack\Samples\SampleApp\CC2530DB\..\..\..\..\..\ #
#                          COMPONENTS\MAC\LOW_LEVEL\srf04\ -I                 #
#                          C:\Zigbee\ZStack-CC2530-2.3.0-1.4.0_12\Projects\zs #
#                          tack\Samples\SampleApp\CC2530DB\..\..\..\..\..\COM #
#                          PONENTS\MAC\LOW_LEVEL\srf04\SINGLE_CHIP\ -Ohz      #
#    List file          =  C:\Zigbee\ZStack-CC2530-2.3.0-1.4.0_12\Projects\zs #
#                          tack\Samples\SampleApp\CC2530DB\CoordinatorEB-Pro\ #
#                          List\SampleApp.lst                                 #
#    Object file        =  C:\Zigbee\ZStack-CC2530-2.3.0-1.4.0_12\Projects\zs #
#                          tack\Samples\SampleApp\CC2530DB\CoordinatorEB-Pro\ #
#                          Obj\SampleApp.r51                                  #
#                                                                             #
#                                                                             #
###############################################################################

C:\Zigbee\ZStack-CC2530-2.3.0-1.4.0_12\Projects\zstack\Samples\SampleApp\Source\SampleApp.c
      1          /**************************************************************************************************
      2            Filename:       SampleApp.c
      3            Revised:        $Date: 2009-03-18 15:56:27 -0700 (Wed, 18 Mar 2009) $
      4            Revision:       $Revision: 19453 $
      5          
      6            Description:    Sample Application (no Profile).
      7          
      8          
      9            Copyright 2007 Texas Instruments Incorporated. All rights reserved.
     10          
     11            IMPORTANT: Your use of this Software is limited to those specific rights
     12            granted under the terms of a software license agreement between the user
     13            who downloaded the software, his/her employer (which must be your employer)
     14            and Texas Instruments Incorporated (the "License").  You may not use this
     15            Software unless you agree to abide by the terms of the License. The License
     16            limits your use, and you acknowledge, that the Software may not be modified,
     17            copied or distributed unless embedded on a Texas Instruments microcontroller
     18            or used solely and exclusively in conjunction with a Texas Instruments radio
     19            frequency transceiver, which is integrated into your product.  Other than for
     20            the foregoing purpose, you may not use, reproduce, copy, prepare derivative
     21            works of, modify, distribute, perform, display or sell this Software and/or
     22            its documentation for any purpose.
     23          
     24            YOU FURTHER ACKNOWLEDGE AND AGREE THAT THE SOFTWARE AND DOCUMENTATION ARE
     25            PROVIDED AS IS?WITHOUT WARRANTY OF ANY KIND, EITHER EXPRESS OR IMPLIED,
     26            INCLUDING WITHOUT LIMITATION, ANY WARRANTY OF MERCHANTABILITY, TITLE,
     27            NON-INFRINGEMENT AND FITNESS FOR A PARTICULAR PURPOSE. IN NO EVENT SHALL
     28            TEXAS INSTRUMENTS OR ITS LICENSORS BE LIABLE OR OBLIGATED UNDER CONTRACT,
     29            NEGLIGENCE, STRICT LIABILITY, CONTRIBUTION, BREACH OF WARRANTY, OR OTHER
     30            LEGAL EQUITABLE THEORY ANY DIRECT OR INDIRECT DAMAGES OR EXPENSES
     31            INCLUDING BUT NOT LIMITED TO ANY INCIDENTAL, SPECIAL, INDIRECT, PUNITIVE
     32            OR CONSEQUENTIAL DAMAGES, LOST PROFITS OR LOST DATA, COST OF PROCUREMENT
     33            OF SUBSTITUTE GOODS, TECHNOLOGY, SERVICES, OR ANY CLAIMS BY THIRD PARTIES
     34            (INCLUDING BUT NOT LIMITED TO ANY DEFENSE THEREOF), OR OTHER SIMILAR COSTS.
     35          
     36            Should you have any questions regarding your right to use this Software,
     37            contact Texas Instruments Incorporated at www.TI.com.
     38          **************************************************************************************************/
     39          
     40          /*********************************************************************
     41            This application isn't intended to do anything useful, it is
     42            intended to be a simple example of an application's structure.
     43          
     44            This application sends it's messages either as broadcast or
     45            broadcast filtered group messages.  The other (more normal)
     46            message addressing is unicast.  Most of the other sample
     47            applications are written to support the unicast message model.
     48          
     49            Key control:
     50              SW1:  Sends a flash command to all devices in Group 1.
     51              SW2:  Adds/Removes (toggles) this device in and out
     52                    of Group 1.  This will enable and disable the
     53                    reception of the flash command.
     54          *********************************************************************/
     55          
     56          /*********************************************************************
     57           * INCLUDES
     58           */
     59          #include "OSAL.h"
     60          #include "ZGlobals.h"
     61          #include "AF.h"
     62          #include "aps_groups.h"
     63          #include "ZDApp.h"
     64          
     65          #include "SampleApp.h"
     66          #include "SampleAppHw.h"
     67          
     68          
     69          
     70          /* HAL */
     71          #include "hal_lcd.h"

   \                                 In  segment SFR_AN, at 0x80
   \   union <unnamed> volatile __sfr _A_P0
   \                     _A_P0:
   \   000000                DS 1

   \                                 In  segment SFR_AN, at 0xb4
   \   unsigned char volatile __sfr ADCCON1
   \                     ADCCON1:
   \   000000                DS 1

   \                                 In  segment SFR_AN, at 0xb6
   \   unsigned char volatile __sfr ADCCON3
   \                     ADCCON3:
   \   000000                DS 1

   \                                 In  segment SFR_AN, at 0xba
   \   unsigned char volatile __sfr ADCL
   \                     ADCL:
   \   000000                DS 1

   \                                 In  segment SFR_AN, at 0xbb
   \   unsigned char volatile __sfr ADCH
   \                     ADCH:
   \   000000                DS 1

   \                                 In  segment SFR_AN, at 0xf2
   \   unsigned char volatile __sfr ADCCFG
   \                     ADCCFG:
   \   000000                DS 1

   \                                 In  segment SFR_AN, at 0xf3
   \   unsigned char volatile __sfr P0SEL
   \                     P0SEL:
   \   000000                DS 1

   \                                 In  segment SFR_AN, at 0xfd
   \   unsigned char volatile __sfr P0DIR
   \                     P0DIR:
   \   000000                DS 1
     72          #include "hal_led.h"
     73          #include "hal_key.h"
     74          #include "MT_UART.h"
     75          #include "MT_APP.h"
     76          #include "MT.h"
     77          
     78          #include "ds18b20.h"
     79          
     80          /*********************************************************************
     81           * MACROS
     82           */
     83          #define DATA_PIN P0_5           //定义P0.6口为红外传感器的输入端
     84          
     85          
     86          /*********************************************************************
     87           * CONSTANTS
     88           */
     89          
     90          /*********************************************************************
     91           * TYPEDEFS
     92           */
     93          
     94          /*********************************************************************
     95           * GLOBAL VARIABLES
     96           */
     97          
     98          // This list should be filled with Application specific Cluster IDs.

   \                                 In  segment XDATA_ROM_C, align 1
     99          const cId_t SampleApp_ClusterList[SAMPLEAPP_MAX_CLUSTERS] =
   \                     SampleApp_ClusterList:
   \   000000   0100         DW 1
   \   000002   0200         DW 2
    100          {
    101            SAMPLEAPP_PERIODIC_CLUSTERID,
    102            SAMPLEAPP_FLASH_CLUSTERID
    103          };
    104          

   \                                 In  segment XDATA_ROM_C, align 1
    105          const SimpleDescriptionFormat_t SampleApp_SimpleDesc =
   \                     SampleApp_SimpleDesc:
   \   000000   14           DB 20
   \   000001   080F         DW 3848
   \   000003   0100         DW 1
   \   000005   00           DB 0
   \   000006   02           DB 2
   \   000007   ....         DW SampleApp_ClusterList
   \   000009   02           DB 2
   \   00000A   ....         DW SampleApp_ClusterList
    106          {
    107            SAMPLEAPP_ENDPOINT,              //  int Endpoint;
    108            SAMPLEAPP_PROFID,                //  uint16 AppProfId[2];
    109            SAMPLEAPP_DEVICEID,              //  uint16 AppDeviceId[2];
    110            SAMPLEAPP_DEVICE_VERSION,        //  int   AppDevVer:4;
    111            SAMPLEAPP_FLAGS,                 //  int   AppFlags:4;
    112            SAMPLEAPP_MAX_CLUSTERS,          //  uint8  AppNumInClusters;
    113            (cId_t *)SampleApp_ClusterList,  //  uint8 *pAppInClusterList;
    114            SAMPLEAPP_MAX_CLUSTERS,          //  uint8  AppNumInClusters;
    115            (cId_t *)SampleApp_ClusterList   //  uint8 *pAppInClusterList;
    116          };
    117          
    118          // This is the Endpoint/Interface description.  It is defined here, but
    119          // filled-in in SampleApp_Init().  Another way to go would be to fill
    120          // in the structure here and make it a "const" (in code space).  The
    121          // way it's defined in this sample app it is define in RAM.

   \                                 In  segment XDATA_Z, align 1, keep-with-next
    122          endPointDesc_t SampleApp_epDesc;
   \                     SampleApp_epDesc:
   \   000000                DS 6
   \   000006                REQUIRE __INIT_XDATA_Z
    123          
    124          /*********************************************************************
    125           * EXTERNAL VARIABLES
    126           */
    127          
    128          /*********************************************************************
    129           * EXTERNAL FUNCTIONS
    130           */
    131          
    132          /*********************************************************************
    133           * LOCAL VARIABLES
    134           */

   \                                 In  segment XDATA_Z, align 1, keep-with-next
    135          uint8 SampleApp_TaskID;   // Task ID for internal task/event processing
   \                     SampleApp_TaskID:
   \   000000                DS 1
   \   000001                REQUIRE __INIT_XDATA_Z
    136                                    // This variable will be received when
    137                                    // SampleApp_Init() is called.

   \                                 In  segment XDATA_Z, align 1, keep-with-next
    138          devStates_t SampleApp_NwkState;
   \                     SampleApp_NwkState:
   \   000000                DS 1
   \   000001                REQUIRE __INIT_XDATA_Z
    139          

   \                                 In  segment XDATA_Z, align 1, keep-with-next
    140          uint8 SampleApp_TransID;  // This is the unique message ID (counter)
   \                     SampleApp_TransID:
   \   000000                DS 1
   \   000001                REQUIRE __INIT_XDATA_Z
    141          

   \                                 In  segment XDATA_Z, align 1, keep-with-next
    142          afAddrType_t SampleApp_Periodic_DstAddr;
   \                     SampleApp_Periodic_DstAddr:
   \   000000                DS 12
   \   00000C                REQUIRE __INIT_XDATA_Z

   \                                 In  segment XDATA_Z, align 1, keep-with-next
    143          afAddrType_t SampleApp_Flash_DstAddr;
   \                     SampleApp_Flash_DstAddr:
   \   000000                DS 12
   \   00000C                REQUIRE __INIT_XDATA_Z
    144          

   \                                 In  segment XDATA_Z, align 1, keep-with-next
    145          aps_Group_t SampleApp_Group;
   \                     SampleApp_Group:
   \   000000                DS 18
   \   000012                REQUIRE __INIT_XDATA_Z
    146          

   \                                 In  segment XDATA_Z, align 1, keep-with-next
    147          uint8 SampleAppPeriodicCounter = 0;
   \                     SampleAppPeriodicCounter:
   \   000000                DS 1
   \   000001                REQUIRE __INIT_XDATA_Z

   \                                 In  segment XDATA_Z, align 1, keep-with-next
    148          uint8 SampleAppFlashCounter = 0;
   \                     SampleAppFlashCounter:
   \   000000                DS 1
   \   000001                REQUIRE __INIT_XDATA_Z
    149          
    150          /*********************************************************************
    151           * LOCAL FUNCTIONS
    152           */
    153          void SampleApp_HandleKeys( uint8 shift, uint8 keys );
    154          void SampleApp_MessageMSGCB( afIncomingMSGPacket_t *pckt );
    155          void SampleApp_SendPeriodicMessage( void );
    156          void SampleApp_SendFlashMessage( uint16 flashTime );
    157          void SampleApp_SerialCMD(mtOSALSerialData_t *cmdMsg);
    158          
    159          uint16 myApp_ReadGasLevel( void );//监测烟雾浓度
    160          char myApp_ReadHongWai( void );//监测红外数据
    161          void myApp_ReadWenDu( byte *str1,byte *str2 );
    162          //uint16 myApp_ReadWenDu( void );  //检测温度数据
    163                                       
    164          
    165          /*********************************************************************
    166           * NETWORK LAYER CALLBACKS
    167           */
    168          
    169          /*********************************************************************
    170           * PUBLIC FUNCTIONS
    171           */
    172          
    173          /*********************************************************************
    174           * @fn      SampleApp_Init
    175           *
    176           * @brief   Initialization function for the Generic App Task.
    177           *          This is called during initialization and should contain
    178           *          any application specific initialization (ie. hardware
    179           *          initialization/setup, table initialization, power up
    180           *          notificaiton ... ).
    181           *
    182           * @param   task_id - the ID assigned by OSAL.  This ID should be
    183           *                    used to send messages and set timers.
    184           *
    185           * @return  none
    186           */

   \                                 In  segment BANKED_CODE, align 1, keep-with-next
    187          void SampleApp_Init( uint8 task_id )
   \                     SampleApp_Init:
    188          { 
   \   000000   74F5         MOV     A,#-0xb
   \   000002   12....       LCALL   ?BANKED_ENTER_XDATA
   \   000005                ; Saved register size: 11
   \   000005                ; Auto size: 0
   \   000005   E9           MOV     A,R1
   \   000006   FE           MOV     R6,A
    189            SampleApp_TaskID = task_id;
   \   000007   90....       MOV     DPTR,#SampleApp_TaskID
   \   00000A   F0           MOVX    @DPTR,A
    190            SampleApp_NwkState = DEV_INIT;
   \   00000B   90....       MOV     DPTR,#SampleApp_NwkState
   \   00000E   7401         MOV     A,#0x1
   \   000010   F0           MOVX    @DPTR,A
    191            SampleApp_TransID = 0;
   \   000011   90....       MOV     DPTR,#SampleApp_TransID
   \   000014   E4           CLR     A
   \   000015   F0           MOVX    @DPTR,A
    192            
    193            MT_UartInit();                  //串口初始化
   \   000016                ; Setup parameters for call to function MT_UartInit
   \   000016   12....       LCALL   ??MT_UartInit?relay
    194            MT_UartRegisterTaskID(task_id); //注册串口任务
   \   000019                ; Setup parameters for call to function MT_UartRegisterTaskID
   \   000019   EE           MOV     A,R6
   \   00001A   F9           MOV     R1,A
   \   00001B   12....       LCALL   ??MT_UartRegisterTaskID?relay
    195            HalUARTWrite(0,"UartInit OK\n", sizeof("UartInit OK\n"));//提示信息
   \   00001E                ; Setup parameters for call to function HalUARTWrite
   \   00001E   7C0D         MOV     R4,#0xd
   \   000020   7D00         MOV     R5,#0x0
   \   000022   7A..         MOV     R2,#`?<Constant "UartInit OK\\n">` & 0xff
   \   000024   7B..         MOV     R3,#(`?<Constant "UartInit OK\\n">` >> 8) & 0xff
   \   000026   7900         MOV     R1,#0x0
   \   000028   12....       LCALL   ??HalUARTWrite?relay
    196            P0SEL &= ~0x20;                 //设置P0.5为普通IO口 (烟雾)  
   \   00002B   53F3DF       ANL     0xf3,#0xdf
    197            P0DIR &= ~0x20;                 //P0.5定义为输入口 
   \   00002E   53FDDF       ANL     0xfd,#0xdf
    198            P0SEL &= ~0x40;                 //设置P0.6为普通IO口  (红外)
   \   000031   53F3BF       ANL     0xf3,#0xbf
    199            P0DIR &= ~0x40;                 //P0.6定义为输入口
   \   000034   53FDBF       ANL     0xfd,#0xbf
    200                                            //p0.7为温度入口
    201            
    202            // Device hardware initialization can be added here or in main() (Zmain.c).
    203            // If the hardware is application specific - add it here.
    204            // If the hardware is other parts of the device add it in main().
    205          
    206           #if defined ( BUILD_ALL_DEVICES )
    207            // The "Demo" target is setup to have BUILD_ALL_DEVICES and HOLD_AUTO_START
    208            // We are looking at a jumper (defined in SampleAppHw.c) to be jumpered
    209            // together - if they are - we will start up a coordinator. Otherwise,
    210            // the device will start as a router.
    211            if ( readCoordinatorJumper() )
    212              zgDeviceLogicalType = ZG_DEVICETYPE_COORDINATOR;
    213            else
    214              zgDeviceLogicalType = ZG_DEVICETYPE_ROUTER;
    215          #endif // BUILD_ALL_DEVICES
    216          
    217          #if defined ( HOLD_AUTO_START )
    218            // HOLD_AUTO_START is a compile option that will surpress ZDApp
    219            //  from starting the device and wait for the application to
    220            //  start the device.
    221            ZDOInitDevice(0);
    222          #endif
    223          
    224            // Setup for the periodic message's destination address
    225            // Broadcast to everyone
    226            SampleApp_Periodic_DstAddr.addrMode = (afAddrMode_t)AddrBroadcast;
   \   000037   90....       MOV     DPTR,#SampleApp_Periodic_DstAddr + 8
   \   00003A   740F         MOV     A,#0xf
   \   00003C   F0           MOVX    @DPTR,A
    227            SampleApp_Periodic_DstAddr.endPoint = SAMPLEAPP_ENDPOINT;
   \   00003D   A3           INC     DPTR
   \   00003E   7414         MOV     A,#0x14
   \   000040   F0           MOVX    @DPTR,A
    228            SampleApp_Periodic_DstAddr.addr.shortAddr = 0xFFFF;
   \   000041   90....       MOV     DPTR,#SampleApp_Periodic_DstAddr
   \   000044   74FF         MOV     A,#-0x1
   \   000046   F0           MOVX    @DPTR,A
   \   000047   A3           INC     DPTR
   \   000048   F0           MOVX    @DPTR,A
    229          
    230            // Setup for the flash command's destination address - Group 1
    231            SampleApp_Flash_DstAddr.addrMode = (afAddrMode_t)afAddrGroup;
   \   000049   90....       MOV     DPTR,#SampleApp_Flash_DstAddr + 8
   \   00004C   7401         MOV     A,#0x1
   \   00004E   F0           MOVX    @DPTR,A
    232            SampleApp_Flash_DstAddr.endPoint = SAMPLEAPP_ENDPOINT;
   \   00004F   A3           INC     DPTR
   \   000050   7414         MOV     A,#0x14
   \   000052   F0           MOVX    @DPTR,A
    233            SampleApp_Flash_DstAddr.addr.shortAddr = SAMPLEAPP_FLASH_GROUP;
   \   000053   90....       MOV     DPTR,#SampleApp_Flash_DstAddr
   \   000056   7401         MOV     A,#0x1
   \   000058   F0           MOVX    @DPTR,A
   \   000059   A3           INC     DPTR
   \   00005A   E4           CLR     A
   \   00005B   F0           MOVX    @DPTR,A
    234          
    235            // Fill out the endpoint description.
    236            SampleApp_epDesc.endPoint = SAMPLEAPP_ENDPOINT;
   \   00005C   90....       MOV     DPTR,#SampleApp_epDesc
   \   00005F   7414         MOV     A,#0x14
   \   000061   F0           MOVX    @DPTR,A
    237            SampleApp_epDesc.task_id = &SampleApp_TaskID;
   \   000062   A3           INC     DPTR
   \   000063   74..         MOV     A,#SampleApp_TaskID & 0xff
   \   000065   F0           MOVX    @DPTR,A
   \   000066   A3           INC     DPTR
   \   000067   74..         MOV     A,#(SampleApp_TaskID >> 8) & 0xff
   \   000069   F0           MOVX    @DPTR,A
    238            SampleApp_epDesc.simpleDesc
    239                      = (SimpleDescriptionFormat_t *)&SampleApp_SimpleDesc;
   \   00006A   A3           INC     DPTR
   \   00006B   74..         MOV     A,#SampleApp_SimpleDesc & 0xff
   \   00006D   F0           MOVX    @DPTR,A
   \   00006E   A3           INC     DPTR
   \   00006F   74..         MOV     A,#(SampleApp_SimpleDesc >> 8) & 0xff
   \   000071   F0           MOVX    @DPTR,A
    240            SampleApp_epDesc.latencyReq = noLatencyReqs;
   \   000072   A3           INC     DPTR
   \   000073   E4           CLR     A
   \   000074   F0           MOVX    @DPTR,A
    241          
    242            // Register the endpoint description with the AF
    243            afRegister( &SampleApp_epDesc );
   \   000075                ; Setup parameters for call to function afRegister
   \   000075   7A..         MOV     R2,#SampleApp_epDesc & 0xff
   \   000077   7B..         MOV     R3,#(SampleApp_epDesc >> 8) & 0xff
   \   000079   12....       LCALL   ??afRegister?relay
    244          
    245            // Register for all key events - This app will handle all key events
    246            RegisterForKeys( SampleApp_TaskID );
   \   00007C                ; Setup parameters for call to function RegisterForKeys
   \   00007C   90....       MOV     DPTR,#SampleApp_TaskID
   \   00007F   E0           MOVX    A,@DPTR
   \   000080   F9           MOV     R1,A
   \   000081   12....       LCALL   ??RegisterForKeys?relay
    247          
    248            // By default, all devices start out in Group 1
    249            SampleApp_Group.ID = 0x0001;
   \   000084   90....       MOV     DPTR,#SampleApp_Group
   \   000087   7401         MOV     A,#0x1
   \   000089   F0           MOVX    @DPTR,A
   \   00008A   A3           INC     DPTR
   \   00008B   E4           CLR     A
   \   00008C   F0           MOVX    @DPTR,A
    250            osal_memcpy( SampleApp_Group.name, "Group 1", 7 );
   \   00008D                ; Setup parameters for call to function osal_memcpy
   \   00008D   75....       MOV     ?V0 + 0,#`?<Constant "Group 1">` & 0xff
   \   000090   75....       MOV     ?V0 + 1,#(`?<Constant "Group 1">` >> 8) & 0xff
   \   000093   F5..         MOV     ?V0 + 2,A
   \   000095   78..         MOV     R0,#?V0 + 0
   \   000097   12....       LCALL   ?PUSH_XSTACK_I_THREE
   \   00009A   7C07         MOV     R4,#0x7
   \   00009C   7D00         MOV     R5,#0x0
   \   00009E   7A..         MOV     R2,#(SampleApp_Group + 2) & 0xff
   \   0000A0   7B..         MOV     R3,#((SampleApp_Group + 2) >> 8) & 0xff
   \   0000A2   12....       LCALL   ??osal_memcpy?relay
   \   0000A5   7403         MOV     A,#0x3
   \   0000A7   12....       LCALL   ?DEALLOC_XSTACK8
    251            aps_AddGroup( SAMPLEAPP_ENDPOINT, &SampleApp_Group );
   \   0000AA                ; Setup parameters for call to function aps_AddGroup
   \   0000AA   7A..         MOV     R2,#SampleApp_Group & 0xff
   \   0000AC   7B..         MOV     R3,#(SampleApp_Group >> 8) & 0xff
   \   0000AE   7914         MOV     R1,#0x14
   \   0000B0   12....       LCALL   ??aps_AddGroup?relay
    252          
    253          #if defined ( LCD_SUPPORTED )
    254            HalLcdWriteString( "SampleApp", HAL_LCD_LINE_1 );
   \   0000B3                ; Setup parameters for call to function HalLcdWriteString
   \   0000B3   7901         MOV     R1,#0x1
   \   0000B5   7A..         MOV     R2,#`?<Constant "SampleApp">` & 0xff
   \   0000B7   7B..         MOV     R3,#(`?<Constant "SampleApp">` >> 8) & 0xff
   \   0000B9   12....       LCALL   ??HalLcdWriteString?relay
    255          #endif
    256          }
   \   0000BC                REQUIRE ?Subroutine0
   \   0000BC                REQUIRE P0SEL
   \   0000BC                REQUIRE P0DIR
   \   0000BC                ; // Fall through to label ?Subroutine0

   \                                 In  segment BANKED_CODE, align 1, keep-with-next
   \                     ?Subroutine0:
   \   000000   7F03         MOV     R7,#0x3
   \   000002   02....       LJMP    ?BANKED_LEAVE_XDATA
    257          
    258          /*********************************************************************
    259           * @fn      SampleApp_ProcessEvent
    260           *
    261           * @brief   Generic Application Task event processor.  This function
    262           *          is called to process all events for the task.  Events
    263           *          include timers, messages and any other user defined events.
    264           *
    265           * @param   task_id  - The OSAL assigned task ID.
    266           * @param   events - events to process.  This is a bit map and can
    267           *                   contain more than one event.
    268           *
    269           * @return  none
    270           */

   \                                 In  segment BANKED_CODE, align 1, keep-with-next
    271          uint16 SampleApp_ProcessEvent( uint8 task_id, uint16 events )
   \                     SampleApp_ProcessEvent:
    272          {
   \   000000   74F4         MOV     A,#-0xc
   \   000002   12....       LCALL   ?BANKED_ENTER_XDATA
   \   000005                ; Saved register size: 12
   \   000005                ; Auto size: 0
   \   000005   EA           MOV     A,R2
   \   000006   FE           MOV     R6,A
   \   000007   EB           MOV     A,R3
   \   000008   FF           MOV     R7,A
    273            afIncomingMSGPacket_t *MSGpkt;
    274            (void)task_id;  // Intentionally unreferenced parameter
    275          
    276            if ( events & SYS_EVENT_MSG )
   \   000009   5480         ANL     A,#0x80
   \   00000B   6074         JZ      ??SampleApp_ProcessEvent_0
    277            {
    278              MSGpkt = (afIncomingMSGPacket_t *)osal_msg_receive( SampleApp_TaskID );
   \   00000D                ; Setup parameters for call to function osal_msg_receive
   \   00000D   8026         SJMP    ??SampleApp_ProcessEvent_1
    279              while ( MSGpkt )
    280              {
    281                switch ( MSGpkt->hdr.event )
    282                {        
    283                  // Received when a key is pressed
    284                  case KEY_CHANGE:
    285                    SampleApp_HandleKeys( ((keyChange_t *)MSGpkt)->state, ((keyChange_t *)MSGpkt)->keys );
    286                    break;
    287          
    288                  // Received when a messages is received (OTA) for this endpoint
    289                  case AF_INCOMING_MSG_CMD:
    290                    SampleApp_MessageMSGCB( MSGpkt );
    291                    break;
    292          
    293                  // Received whenever the device changes state in the network
    294                  case ZDO_STATE_CHANGE:
    295                    SampleApp_NwkState = (devStates_t)(MSGpkt->hdr.status);
   \                     ??SampleApp_ProcessEvent_2:
   \   00000F   A3           INC     DPTR
   \   000010   E0           MOVX    A,@DPTR
   \   000011   90....       MOV     DPTR,#SampleApp_NwkState
   \   000014   F0           MOVX    @DPTR,A
    296                    if ( //(SampleApp_NwkState == DEV_ZB_COORD) ||
    297                           (SampleApp_NwkState == DEV_ROUTER)
    298                        || (SampleApp_NwkState == DEV_END_DEVICE) )
   \   000015   6407         XRL     A,#0x7
   \   000017   6005         JZ      ??SampleApp_ProcessEvent_3
   \   000019   E0           MOVX    A,@DPTR
   \   00001A   6406         XRL     A,#0x6
   \   00001C   7010         JNZ     ??SampleApp_ProcessEvent_4
    299                    {
    300                      // Start sending the periodic message in a regular interval.
    301                      osal_start_timerEx( SampleApp_TaskID,
    302                                        SAMPLEAPP_SEND_PERIODIC_MSG_EVT,
    303                                        SAMPLEAPP_SEND_PERIODIC_MSG_TIMEOUT );
   \                     ??SampleApp_ProcessEvent_3:
   \   00001E                ; Setup parameters for call to function osal_start_timerEx
   \   00001E   7CB8         MOV     R4,#-0x48
   \   000020   7D0B         MOV     R5,#0xb
   \   000022   7A01         MOV     R2,#0x1
   \   000024   7B00         MOV     R3,#0x0
   \   000026   90....       MOV     DPTR,#SampleApp_TaskID
   \   000029   E0           MOVX    A,@DPTR
   \   00002A   F9           MOV     R1,A
   \   00002B   12....       LCALL   ??osal_start_timerEx?relay
    304                    }
    305                    else
    306                    {
    307                      // Device is no longer in the network
    308                    }
    309                    break;
    310          
    311                  default:
    312                    break;
    313                }
    314          
    315                // Release the memory
    316                osal_msg_deallocate( (uint8 *)MSGpkt );
   \                     ??SampleApp_ProcessEvent_4:
   \   00002E                ; Setup parameters for call to function osal_msg_deallocate
   \   00002E   AA..         MOV     R2,?V0 + 0
   \   000030   AB..         MOV     R3,?V0 + 1
   \   000032   12....       LCALL   ??osal_msg_deallocate?relay
    317          
    318                // Next - if one is available
    319                MSGpkt = (afIncomingMSGPacket_t *)osal_msg_receive( SampleApp_TaskID );
   \   000035                ; Setup parameters for call to function osal_msg_receive
   \                     ??SampleApp_ProcessEvent_1:
   \   000035   90....       MOV     DPTR,#SampleApp_TaskID
   \   000038   E0           MOVX    A,@DPTR
   \   000039   F9           MOV     R1,A
   \   00003A   12....       LCALL   ??osal_msg_receive?relay
   \   00003D   8A..         MOV     ?V0 + 0,R2
   \   00003F   8B..         MOV     ?V0 + 1,R3
   \   000041   E5..         MOV     A,?V0 + 0
   \   000043   45..         ORL     A,?V0 + 1
   \   000045   6032         JZ      ??SampleApp_ProcessEvent_5
   \   000047   85..82       MOV     DPL,?V0 + 0
   \   00004A   85..83       MOV     DPH,?V0 + 1
   \   00004D   E0           MOVX    A,@DPTR
   \   00004E   24E6         ADD     A,#-0x1a
   \   000050   601E         JZ      ??SampleApp_ProcessEvent_6
   \   000052   245A         ADD     A,#0x5a
   \   000054   6006         JZ      ??SampleApp_ProcessEvent_7
   \   000056   24EF         ADD     A,#-0x11
   \   000058   60B5         JZ      ??SampleApp_ProcessEvent_2
   \   00005A   80D2         SJMP    ??SampleApp_ProcessEvent_4
   \                     ??SampleApp_ProcessEvent_7:
   \   00005C                ; Setup parameters for call to function SampleApp_HandleKeys
   \   00005C   A3           INC     DPTR
   \   00005D   A3           INC     DPTR
   \   00005E   A3           INC     DPTR
   \   00005F   E0           MOVX    A,@DPTR
   \   000060   FA           MOV     R2,A
   \   000061   85..82       MOV     DPL,?V0 + 0
   \   000064   85..83       MOV     DPH,?V0 + 1
   \   000067   A3           INC     DPTR
   \   000068   A3           INC     DPTR
   \   000069   E0           MOVX    A,@DPTR
   \   00006A   F9           MOV     R1,A
   \   00006B   12....       LCALL   ??SampleApp_HandleKeys?relay
   \   00006E   80BE         SJMP    ??SampleApp_ProcessEvent_4
   \                     ??SampleApp_ProcessEvent_6:
   \   000070                ; Setup parameters for call to function SampleApp_MessageMSGCB
   \   000070   AA..         MOV     R2,?V0 + 0
   \   000072   AB..         MOV     R3,?V0 + 1
   \   000074   12....       LCALL   ??SampleApp_MessageMSGCB?relay
   \   000077   80B5         SJMP    ??SampleApp_ProcessEvent_4
    320              }
    321          
    322              // return unprocessed events
    323              return (events ^ SYS_EVENT_MSG);
   \                     ??SampleApp_ProcessEvent_5:
   \   000079   EE           MOV     A,R6
   \   00007A   FA           MOV     R2,A
   \   00007B   EF           MOV     A,R7
   \   00007C   6480         XRL     A,#0x80
   \                     ??SampleApp_ProcessEvent_8:
   \   00007E   FB           MOV     R3,A
   \   00007F   802A         SJMP    ??SampleApp_ProcessEvent_9
    324            }
    325          
    326            // Send a message out - This event is generated by a timer
    327            //  (setup in SampleApp_Init()).
    328            if ( events & SAMPLEAPP_SEND_PERIODIC_MSG_EVT )
   \                     ??SampleApp_ProcessEvent_0:
   \   000081   EE           MOV     A,R6
   \   000082   A2E0         MOV     C,0xE0 /* A   */.0
   \   000084   5021         JNC     ??SampleApp_ProcessEvent_10
    329            {
    330              // Send the periodic message
    331              SampleApp_SendPeriodicMessage();
   \   000086                ; Setup parameters for call to function SampleApp_SendPeriodicMessage
   \   000086   12....       LCALL   ??SampleApp_SendPeriodicMessage?relay
    332          
    333              // Setup to send message again in normal period (+ a little jitter)
    334              osal_start_timerEx( SampleApp_TaskID, SAMPLEAPP_SEND_PERIODIC_MSG_EVT,
    335                  (SAMPLEAPP_SEND_PERIODIC_MSG_TIMEOUT + (osal_rand() & 0x00FF)) );
   \   000089                ; Setup parameters for call to function osal_rand
   \   000089   12....       LCALL   ??osal_rand?relay
   \   00008C                ; Setup parameters for call to function osal_start_timerEx
   \   00008C   EA           MOV     A,R2
   \   00008D   24B8         ADD     A,#-0x48
   \   00008F   FC           MOV     R4,A
   \   000090   E4           CLR     A
   \   000091   340B         ADDC    A,#0xb
   \   000093   FD           MOV     R5,A
   \   000094   7A01         MOV     R2,#0x1
   \   000096   7B00         MOV     R3,#0x0
   \   000098   90....       MOV     DPTR,#SampleApp_TaskID
   \   00009B   E0           MOVX    A,@DPTR
   \   00009C   F9           MOV     R1,A
   \   00009D   12....       LCALL   ??osal_start_timerEx?relay
    336          
    337              // return unprocessed events
    338              return (events ^ SAMPLEAPP_SEND_PERIODIC_MSG_EVT);
   \   0000A0   EE           MOV     A,R6
   \   0000A1   6401         XRL     A,#0x1
   \   0000A3   FA           MOV     R2,A
   \   0000A4   EF           MOV     A,R7
   \   0000A5   80D7         SJMP    ??SampleApp_ProcessEvent_8
    339            }
    340          
    341            // Discard unknown events
    342            return 0;
   \                     ??SampleApp_ProcessEvent_10:
   \   0000A7   7A00         MOV     R2,#0x0
   \   0000A9   7B00         MOV     R3,#0x0
   \                     ??SampleApp_ProcessEvent_9:
   \   0000AB                REQUIRE ?Subroutine1
   \   0000AB                ; // Fall through to label ?Subroutine1
    343          }

   \                                 In  segment BANKED_CODE, align 1, keep-with-next
   \                     ?Subroutine1:
   \   000000   7F04         MOV     R7,#0x4
   \   000002   02....       LJMP    ?BANKED_LEAVE_XDATA
    344          
    345          /*********************************************************************
    346           * Event Generation Functions
    347           */
    348          /*********************************************************************
    349           * @fn      SampleApp_HandleKeys
    350           *
    351           * @brief   Handles all key events for this device.
    352           *
    353           * @param   shift - true if in shift/alt.
    354           * @param   keys - bit field for key events. Valid entries:
    355           *                 HAL_KEY_SW_2
    356           *                 HAL_KEY_SW_1
    357           *
    358           * @return  none
    359           */

   \                                 In  segment BANKED_CODE, align 1, keep-with-next
    360          void SampleApp_HandleKeys( uint8 shift, uint8 keys )
   \                     SampleApp_HandleKeys:
    361          {
   \   000000   74F6         MOV     A,#-0xa
   \   000002   12....       LCALL   ?BANKED_ENTER_XDATA
   \   000005                ; Saved register size: 10
   \   000005                ; Auto size: 0
   \   000005   EA           MOV     A,R2
   \   000006   FE           MOV     R6,A
    362            (void)shift;  // Intentionally unreferenced parameter
    363            
    364            if ( keys & HAL_KEY_SW_1 )
   \   000007   A2E0         MOV     C,0xE0 /* A   */.0
   \   000009   5007         JNC     ??SampleApp_HandleKeys_0
    365            {
    366              /* This key sends the Flash Command is sent to Group 1.
    367               * This device will not receive the Flash Command from this
    368               * device (even if it belongs to group 1).
    369               */
    370              SampleApp_SendFlashMessage( SAMPLEAPP_FLASH_DURATION );
   \   00000B                ; Setup parameters for call to function SampleApp_SendFlashMessage
   \   00000B   7AE8         MOV     R2,#-0x18
   \   00000D   7B03         MOV     R3,#0x3
   \   00000F   12....       LCALL   ??SampleApp_SendFlashMessage?relay
    371            }
    372          
    373            if ( keys & HAL_KEY_SW_2 )
   \                     ??SampleApp_HandleKeys_0:
   \   000012   EE           MOV     A,R6
   \   000013   A2E1         MOV     C,0xE0 /* A   */.1
   \   000015   5024         JNC     ??SampleApp_HandleKeys_1
    374            {
    375              /* The Flashr Command is sent to Group 1.
    376               * This key toggles this device in and out of group 1.
    377               * If this device doesn't belong to group 1, this application
    378               * will not receive the Flash command sent to group 1.
    379               */
    380              aps_Group_t *grp;
    381              grp = aps_FindGroup( SAMPLEAPP_ENDPOINT, SAMPLEAPP_FLASH_GROUP );
    382              if ( grp )
   \   000017                ; Setup parameters for call to function aps_FindGroup
   \   000017   7A01         MOV     R2,#0x1
   \   000019   7B00         MOV     R3,#0x0
   \   00001B   7914         MOV     R1,#0x14
   \   00001D   12....       LCALL   ??aps_FindGroup?relay
   \   000020   8B..         MOV     ?V0 + 1,R3
   \   000022   EA           MOV     A,R2
   \   000023   45..         ORL     A,?V0 + 1
   \   000025   600B         JZ      ??SampleApp_HandleKeys_2
    383              {
    384                // Remove from the group
    385                aps_RemoveGroup( SAMPLEAPP_ENDPOINT, SAMPLEAPP_FLASH_GROUP );
   \   000027                ; Setup parameters for call to function aps_RemoveGroup
   \   000027   7A01         MOV     R2,#0x1
   \   000029   7B00         MOV     R3,#0x0
   \   00002B   7914         MOV     R1,#0x14
   \   00002D   12....       LCALL   ??aps_RemoveGroup?relay
   \   000030   8009         SJMP    ??SampleApp_HandleKeys_1
    386              }
    387              else
    388              {
    389                // Add to the flash group
    390                aps_AddGroup( SAMPLEAPP_ENDPOINT, &SampleApp_Group );
   \                     ??SampleApp_HandleKeys_2:
   \   000032                ; Setup parameters for call to function aps_AddGroup
   \   000032   7A..         MOV     R2,#SampleApp_Group & 0xff
   \   000034   7B..         MOV     R3,#(SampleApp_Group >> 8) & 0xff
   \   000036   7914         MOV     R1,#0x14
   \   000038   12....       LCALL   ??aps_AddGroup?relay
    391              }
    392            }
    393          }
   \                     ??SampleApp_HandleKeys_1:
   \   00003B   02....       LJMP    ??Subroutine5_0 & 0xFFFF

   \                                 In  segment BANKED_CODE, align 1, keep-with-next
   \                     ??Subroutine5_0:
   \   000000   7F02         MOV     R7,#0x2
   \   000002   02....       LJMP    ?BANKED_LEAVE_XDATA
    394          
    395          /*********************************************************************
    396           * LOCAL FUNCTIONS
    397           */
    398          
    399          /*********************************************************************
    400           * @fn      SampleApp_MessageMSGCB
    401           *
    402           * @brief   Data message processor callback.  This function processes
    403           *          any incoming data - probably from other devices.  So, based
    404           *          on cluster ID, perform the intended action.
    405           *
    406           * @param   none
    407           *
    408           * @return  none
    409           */

   \                                 In  segment BANKED_CODE, align 1, keep-with-next
    410          void SampleApp_MessageMSGCB( afIncomingMSGPacket_t *pkt ) //接收数据
   \                     SampleApp_MessageMSGCB:
    411          {
   \   000000   74F4         MOV     A,#-0xc
   \   000002   12....       LCALL   ?BANKED_ENTER_XDATA
   \   000005                ; Saved register size: 12
   \   000005                ; Auto size: 0
   \   000005   EA           MOV     A,R2
   \   000006   FE           MOV     R6,A
   \   000007   EB           MOV     A,R3
   \   000008   FF           MOV     R7,A
    412            uint16 flashTime;
    413          
    414            switch ( pkt->clusterId )
   \   000009   EE           MOV     A,R6
   \   00000A   2421         ADD     A,#0x21
   \   00000C   F5..         MOV     ?V0 + 0,A
   \   00000E   EF           MOV     A,R7
   \   00000F   3400         ADDC    A,#0x0
   \   000011   F5..         MOV     ?V0 + 1,A
   \   000013   8E82         MOV     DPL,R6
   \   000015   8F83         MOV     DPH,R7
   \   000017   A3           INC     DPTR
   \   000018   A3           INC     DPTR
   \   000019   A3           INC     DPTR
   \   00001A   A3           INC     DPTR
   \   00001B   E0           MOVX    A,@DPTR
   \   00001C   F5..         MOV     ?V0 + 2,A
   \   00001E   A3           INC     DPTR
   \   00001F   E0           MOVX    A,@DPTR
   \   000020   F5..         MOV     ?V0 + 3,A
   \   000022   78..         MOV     R0,#?V0 + 2
   \   000024   12....       LCALL   ?US_SWITCH_DENSE
   \                     `?<Jumptable for SampleApp_MessageMSGCB>_0`:
   \   000027   0100         DW        1
   \   000029   01           DB        1
   \   00002A   ....         DW        ??SampleApp_MessageMSGCB_0
   \   00002C   ....         DW        ??SampleApp_MessageMSGCB_1
   \   00002E   ....         DW        ??SampleApp_MessageMSGCB_2
    415            {
    416              case SAMPLEAPP_PERIODIC_CLUSTERID:
    417                HalUARTWrite(0, "MQ2&&HongWai&&WenDu:", 20); //提示接收到数据
   \                     ??SampleApp_MessageMSGCB_1:
   \   000030                ; Setup parameters for call to function HalUARTWrite
   \   000030   7C14         MOV     R4,#0x14
   \   000032   7D00         MOV     R5,#0x0
   \   000034   7A..         MOV     R2,#`?<Constant "MQ2&&HongWai&&WenDu:">` & 0xff
   \   000036   7B..         MOV     R3,#(`?<Constant "MQ2&&HongWai&&WenDu:">` >> 8) & 0xff
   \   000038   7900         MOV     R1,#0x0
   \   00003A   12....       LCALL   ??HalUARTWrite?relay
    418                HalUARTWrite(0, pkt->cmd.Data, pkt->cmd.DataLength); //输出接收到的数据 
   \   00003D                ; Setup parameters for call to function HalUARTWrite
   \   00003D   EE           MOV     A,R6
   \   00003E   241F         ADD     A,#0x1f
   \   000040   F582         MOV     DPL,A
   \   000042   EF           MOV     A,R7
   \   000043   3400         ADDC    A,#0x0
   \   000045   F583         MOV     DPH,A
   \   000047   E0           MOVX    A,@DPTR
   \   000048   FC           MOV     R4,A
   \   000049   A3           INC     DPTR
   \   00004A   E0           MOVX    A,@DPTR
   \   00004B   FD           MOV     R5,A
   \   00004C   85..82       MOV     DPL,?V0 + 0
   \   00004F   85..83       MOV     DPH,?V0 + 1
   \   000052   E0           MOVX    A,@DPTR
   \   000053   FA           MOV     R2,A
   \   000054   A3           INC     DPTR
   \   000055   E0           MOVX    A,@DPTR
   \   000056   FB           MOV     R3,A
   \   000057   7900         MOV     R1,#0x0
   \   000059   12....       LCALL   ??HalUARTWrite?relay
    419                HalUARTWrite(0, "\n", 1); // 回车换行 
   \   00005C                ; Setup parameters for call to function HalUARTWrite
   \   00005C   7C01         MOV     R4,#0x1
   \   00005E   7D00         MOV     R5,#0x0
   \   000060   7A..         MOV     R2,#`?<Constant "\\n">` & 0xff
   \   000062   7B..         MOV     R3,#(`?<Constant "\\n">` >> 8) & 0xff
   \   000064   7900         MOV     R1,#0x0
   \   000066   12....       LCALL   ??HalUARTWrite?relay
    420                break;
   \   000069   8037         SJMP    ??SampleApp_MessageMSGCB_0
    421          
    422              case SAMPLEAPP_FLASH_CLUSTERID:     //此实验没有使用，到后面实验详解
    423                flashTime = BUILD_UINT16(pkt->cmd.Data[1], pkt->cmd.Data[2] );
    424                HalLedBlink( HAL_LED_4, 4, 50, (flashTime / 4) );
   \                     ??SampleApp_MessageMSGCB_2:
   \   00006B   85..82       MOV     DPL,?V0 + 0
   \   00006E   85..83       MOV     DPH,?V0 + 1
   \   000071   E0           MOVX    A,@DPTR
   \   000072   F8           MOV     R0,A
   \   000073   A3           INC     DPTR
   \   000074   E0           MOVX    A,@DPTR
   \   000075   F9           MOV     R1,A
   \   000076                ; Setup parameters for call to function HalLedBlink
   \   000076   8882         MOV     DPL,R0
   \   000078   8983         MOV     DPH,R1
   \   00007A   A3           INC     DPTR
   \   00007B   E0           MOVX    A,@DPTR
   \   00007C   FA           MOV     R2,A
   \   00007D   8882         MOV     DPL,R0
   \   00007F   8983         MOV     DPH,R1
   \   000081   A3           INC     DPTR
   \   000082   A3           INC     DPTR
   \   000083   E0           MOVX    A,@DPTR
   \   000084   F9           MOV     R1,A
   \   000085   EA           MOV     A,R2
   \   000086   2400         ADD     A,#0x0
   \   000088   F5..         MOV     ?V0 + 0,A
   \   00008A   E4           CLR     A
   \   00008B   39           ADDC    A,R1
   \   00008C   F5..         MOV     ?V0 + 1,A
   \   00008E   7402         MOV     A,#0x2
   \   000090   78..         MOV     R0,#?V0 + 0
   \   000092   12....       LCALL   ?US_SHR
   \   000095   AC..         MOV     R4,?V0 + 0
   \   000097   AD..         MOV     R5,?V0 + 1
   \   000099   7B32         MOV     R3,#0x32
   \   00009B   7A04         MOV     R2,#0x4
   \   00009D   7908         MOV     R1,#0x8
   \   00009F   12....       LCALL   ??HalLedBlink?relay
    425                break;
    426            }
    427          }
   \                     ??SampleApp_MessageMSGCB_0:
   \   0000A2   02....       LJMP    ?Subroutine1 & 0xFFFF
    428          
    429          /*********************************************************************
    430           * @fn      SampleApp_SendPeriodicMessage
    431           *
    432           * @brief   Send the periodic message.
    433           *
    434           * @param   none
    435           *
    436           * @return  none
    437           */

   \                                 In  segment BANKED_CODE, align 1, keep-with-next
    438          void SampleApp_SendPeriodicMessage( void )
   \                     SampleApp_SendPeriodicMessage:
    439          {
   \   000000   74F6         MOV     A,#-0xa
   \   000002   12....       LCALL   ?BANKED_ENTER_XDATA
   \   000005                ; Saved register size: 10
   \   000005                ; Auto size: 8
   \   000005   74F8         MOV     A,#-0x8
   \   000007   12....       LCALL   ?ALLOC_XSTACK8
    440            unsigned char theMessageData[8] ;
    441            uint16 GasLevel;
    442            char HongWai;
    443            //uint16 WenDu;
    444            
    445            GasLevel = myApp_ReadGasLevel();//读取烟雾数据
   \   00000A                ; Setup parameters for call to function myApp_ReadGasLevel
   \   00000A   12....       LCALL   ??myApp_ReadGasLevel?relay
   \   00000D   8A..         MOV     ?V0 + 0,R2
   \   00000F   8B..         MOV     ?V0 + 1,R3
   \   000011   AC..         MOV     R4,?V0 + 0
   \   000013   AD..         MOV     R5,?V0 + 1
    446            //HongWai  = myApp_ReadHongWai(); //读取红外数据
    447            //WenDu    = myApp_ReadWenDu();   //读取温度值
    448            
    449            theMessageData[0] = GasLevel / 100 + '0';//把烟雾数据转为字符
   \   000015   EC           MOV     A,R4
   \   000016   F8           MOV     R0,A
   \   000017   ED           MOV     A,R5
   \   000018   F9           MOV     R1,A
   \   000019   7A64         MOV     R2,#0x64
   \   00001B   7B00         MOV     R3,#0x0
   \   00001D   12....       LCALL   ?US_DIV_MOD
   \   000020   E8           MOV     A,R0
   \   000021   12....       LCALL   ?Subroutine4 & 0xFFFF
   \                     ??CrossCallReturnLabel_2:
   \   000024   12....       LCALL   ?Subroutine3 & 0xFFFF
    450            theMessageData[1] = GasLevel / 10%10 + '0';
   \                     ??CrossCallReturnLabel_0:
   \   000027   12....       LCALL   ?US_DIV_MOD
   \   00002A   7A0A         MOV     R2,#0xa
   \   00002C   7B00         MOV     R3,#0x0
   \   00002E   12....       LCALL   ?US_DIV_MOD
   \   000031   EA           MOV     A,R2
   \   000032   2430         ADD     A,#0x30
   \   000034   C0E0         PUSH    A
   \   000036   7401         MOV     A,#0x1
   \   000038   12....       LCALL   ?XSTACK_DISP0_8
   \   00003B   D0E0         POP     A
   \   00003D   12....       LCALL   ?Subroutine3 & 0xFFFF
    451            theMessageData[2] = GasLevel % 10 + '0';
   \                     ??CrossCallReturnLabel_1:
   \   000040   12....       LCALL   ?US_DIV_MOD
   \   000043   EA           MOV     A,R2
   \   000044   2430         ADD     A,#0x30
   \   000046   C0E0         PUSH    A
   \   000048   7402         MOV     A,#0x2
   \   00004A   12....       LCALL   ?XSTACK_DISP0_8
   \   00004D   D0E0         POP     A
   \   00004F   F0           MOVX    @DPTR,A
    452            theMessageData[3] =  '*';
   \   000050   7403         MOV     A,#0x3
   \   000052   12....       LCALL   ?XSTACK_DISP0_8
   \   000055   742A         MOV     A,#0x2a
   \   000057   F0           MOVX    @DPTR,A
    453            
    454            theMessageData[4] = HongWai;
                                       ^
Warning[Pe549]: variable "HongWai" is used before its value is set
   \   000058   7404         MOV     A,#0x4
   \   00005A   12....       LCALL   ?XSTACK_DISP0_8
   \   00005D   E4           CLR     A
   \   00005E   F0           MOVX    @DPTR,A
    455            theMessageData[5] =  '*';
   \   00005F   7405         MOV     A,#0x5
   \   000061   12....       LCALL   ?XSTACK_DISP0_8
   \   000064   742A         MOV     A,#0x2a
   \   000066   F0           MOVX    @DPTR,A
    456            
    457            myApp_ReadWenDu(&theMessageData[6],&theMessageData[7]);
   \   000067                ; Setup parameters for call to function myApp_ReadWenDu
   \   000067   7407         MOV     A,#0x7
   \   000069   12....       LCALL   ?XSTACK_DISP0_8
   \   00006C   AC82         MOV     R4,DPL
   \   00006E   AD83         MOV     R5,DPH
   \   000070   7406         MOV     A,#0x6
   \   000072   12....       LCALL   ?XSTACK_DISP0_8
   \   000075   AA82         MOV     R2,DPL
   \   000077   AB83         MOV     R3,DPH
   \   000079   12....       LCALL   ??myApp_ReadWenDu?relay
    458            //theMessageData[6] = WenDu/10 +'0';
    459            //theMessageData[7] = WenDu%10 +'0';
    460            if ( AF_DataRequest( &SampleApp_Periodic_DstAddr, &SampleApp_epDesc,
    461                                 SAMPLEAPP_PERIODIC_CLUSTERID,
    462                               8,
    463                                theMessageData,
    464                                 &SampleApp_TransID,
    465                                 AF_DISCV_ROUTE,
    466                                 AF_DEFAULT_RADIUS ) == afStatus_SUCCESS )
   \   00007C                ; Setup parameters for call to function AF_DataRequest
   \   00007C   75..1E       MOV     ?V0 + 0,#0x1e
   \   00007F   78..         MOV     R0,#?V0 + 0
   \   000081   12....       LCALL   ?PUSH_XSTACK_I_ONE
   \   000084   75....       MOV     ?V0 + 0,#SampleApp_TransID & 0xff
   \   000087   75....       MOV     ?V0 + 1,#(SampleApp_TransID >> 8) & 0xff
   \   00008A   78..         MOV     R0,#?V0 + 0
   \   00008C   12....       LCALL   ?PUSH_XSTACK_I_TWO
   \   00008F   7403         MOV     A,#0x3
   \   000091   12....       LCALL   ?XSTACK_DISP0_8
   \   000094   8582..       MOV     ?V0 + 0,DPL
   \   000097   8583..       MOV     ?V0 + 1,DPH
   \   00009A   78..         MOV     R0,#?V0 + 0
   \   00009C   12....       LCALL   ?PUSH_XSTACK_I_TWO
   \   00009F   75..08       MOV     ?V0 + 0,#0x8
   \   0000A2   75..00       MOV     ?V0 + 1,#0x0
   \   0000A5   78..         MOV     R0,#?V0 + 0
   \   0000A7   12....       LCALL   ?PUSH_XSTACK_I_TWO
   \   0000AA   75..01       MOV     ?V0 + 0,#0x1
   \   0000AD   78..         MOV     R0,#?V0 + 0
   \   0000AF   12....       LCALL   ?PUSH_XSTACK_I_TWO
   \   0000B2   7920         MOV     R1,#0x20
   \   0000B4   7C..         MOV     R4,#SampleApp_epDesc & 0xff
   \   0000B6   7D..         MOV     R5,#(SampleApp_epDesc >> 8) & 0xff
   \   0000B8   7A..         MOV     R2,#SampleApp_Periodic_DstAddr & 0xff
   \   0000BA   7B..         MOV     R3,#(SampleApp_Periodic_DstAddr >> 8) & 0xff
   \   0000BC   12....       LCALL   ??AF_DataRequest?relay
   \   0000BF   7409         MOV     A,#0x9
   \   0000C1   12....       LCALL   ?DEALLOC_XSTACK8
    467            {
    468            }
    469            else
    470            {
    471              // Error occurred in request to send.
    472            }
    473          }
   \   0000C4   7408         MOV     A,#0x8
   \   0000C6                REQUIRE ?Subroutine2
   \   0000C6                ; // Fall through to label ?Subroutine2

   \                                 In  segment BANKED_CODE, align 1, keep-with-next
   \                     ?Subroutine2:
   \   000000   12....       LCALL   ?DEALLOC_XSTACK8
   \   000003                REQUIRE ??Subroutine5_0
   \   000003                ; // Fall through to label ??Subroutine5_0

   \                                 In  segment BANKED_CODE, align 1, keep-with-next
   \                     ?Subroutine3:
   \   000000   F0           MOVX    @DPTR,A
   \   000001   EC           MOV     A,R4
   \   000002   F8           MOV     R0,A
   \   000003   ED           MOV     A,R5
   \   000004   F9           MOV     R1,A
   \   000005   7A0A         MOV     R2,#0xa
   \   000007   7B00         MOV     R3,#0x0
   \   000009   22           RET

   \                                 In  segment BANKED_CODE, align 1, keep-with-next
   \                     ?Subroutine4:
   \   000000   2430         ADD     A,#0x30
   \   000002   85..82       MOV     DPL,?XSP + 0
   \   000005   85..83       MOV     DPH,?XSP + 1
   \   000008   22           RET
    474          
    475          /*********************************************************************
    476           * @fn      SampleApp_SendFlashMessage
    477           *
    478           * @brief   Send the flash message to group 1.
    479           *
    480           * @param   flashTime - in milliseconds
    481           *
    482           * @return  none
    483           */

   \                                 In  segment BANKED_CODE, align 1, keep-with-next
    484          void SampleApp_SendFlashMessage( uint16 flashTime )
   \                     SampleApp_SendFlashMessage:
    485          {
   \   000000   74F6         MOV     A,#-0xa
   \   000002   12....       LCALL   ?BANKED_ENTER_XDATA
   \   000005                ; Saved register size: 10
   \   000005                ; Auto size: 3
   \   000005   74FD         MOV     A,#-0x3
   \   000007   12....       LCALL   ?ALLOC_XSTACK8
    486            uint8 buffer[3];
    487            buffer[0] = (uint8)(SampleAppFlashCounter++);
   \   00000A   90....       MOV     DPTR,#SampleAppFlashCounter
   \   00000D   E0           MOVX    A,@DPTR
   \   00000E   85..82       MOV     DPL,?XSP + 0
   \   000011   85..83       MOV     DPH,?XSP + 1
   \   000014   F0           MOVX    @DPTR,A
   \   000015   90....       MOV     DPTR,#SampleAppFlashCounter
   \   000018   E0           MOVX    A,@DPTR
   \   000019   04           INC     A
   \   00001A   F0           MOVX    @DPTR,A
    488            buffer[1] = LO_UINT16( flashTime );
   \   00001B   7401         MOV     A,#0x1
   \   00001D   12....       LCALL   ?XSTACK_DISP0_8
   \   000020   EA           MOV     A,R2
   \   000021   F0           MOVX    @DPTR,A
    489            buffer[2] = HI_UINT16( flashTime );
   \   000022   7402         MOV     A,#0x2
   \   000024   12....       LCALL   ?XSTACK_DISP0_8
   \   000027   EB           MOV     A,R3
   \   000028   F0           MOVX    @DPTR,A
    490          
    491            if ( AF_DataRequest( &SampleApp_Flash_DstAddr, &SampleApp_epDesc,
    492                                 SAMPLEAPP_FLASH_CLUSTERID,
    493                                 3,
    494                                 buffer,
    495                                 &SampleApp_TransID,
    496                                 AF_DISCV_ROUTE,
    497                                 AF_DEFAULT_RADIUS ) == afStatus_SUCCESS )
   \   000029                ; Setup parameters for call to function AF_DataRequest
   \   000029   75..1E       MOV     ?V0 + 0,#0x1e
   \   00002C   78..         MOV     R0,#?V0 + 0
   \   00002E   12....       LCALL   ?PUSH_XSTACK_I_ONE
   \   000031   75....       MOV     ?V0 + 0,#SampleApp_TransID & 0xff
   \   000034   75....       MOV     ?V0 + 1,#(SampleApp_TransID >> 8) & 0xff
   \   000037   78..         MOV     R0,#?V0 + 0
   \   000039   12....       LCALL   ?PUSH_XSTACK_I_TWO
   \   00003C   7403         MOV     A,#0x3
   \   00003E   12....       LCALL   ?XSTACK_DISP0_8
   \   000041   8582..       MOV     ?V0 + 0,DPL
   \   000044   8583..       MOV     ?V0 + 1,DPH
   \   000047   78..         MOV     R0,#?V0 + 0
   \   000049   12....       LCALL   ?PUSH_XSTACK_I_TWO
   \   00004C   75..03       MOV     ?V0 + 0,#0x3
   \   00004F   75..00       MOV     ?V0 + 1,#0x0
   \   000052   78..         MOV     R0,#?V0 + 0
   \   000054   12....       LCALL   ?PUSH_XSTACK_I_TWO
   \   000057   75..02       MOV     ?V0 + 0,#0x2
   \   00005A   78..         MOV     R0,#?V0 + 0
   \   00005C   12....       LCALL   ?PUSH_XSTACK_I_TWO
   \   00005F   7920         MOV     R1,#0x20
   \   000061   7C..         MOV     R4,#SampleApp_epDesc & 0xff
   \   000063   7D..         MOV     R5,#(SampleApp_epDesc >> 8) & 0xff
   \   000065   7A..         MOV     R2,#SampleApp_Flash_DstAddr & 0xff
   \   000067   7B..         MOV     R3,#(SampleApp_Flash_DstAddr >> 8) & 0xff
   \   000069   12....       LCALL   ??AF_DataRequest?relay
   \   00006C   7409         MOV     A,#0x9
   \   00006E   12....       LCALL   ?DEALLOC_XSTACK8
    498            {
    499            }
    500            else
    501            {
    502              // Error occurred in request to send.
    503            }
    504          }
   \   000071   7403         MOV     A,#0x3
   \   000073   02....       LJMP    ?Subroutine2 & 0xFFFF
    505          
    506          /*********************************************************************
    507          读烟雾浓度函数
    508          */

   \                                 In  segment BANKED_CODE, align 1, keep-with-next
    509          uint16 myApp_ReadGasLevel( void )
   \                     myApp_ReadGasLevel:
    510          {
   \   000000                ; Saved register size: 0
   \   000000                ; Auto size: 0
    511            uint16 reading = 0;
    512            
    513            /* Enable channel */
    514            ADCCFG |= 0x40;
   \   000000   43F240       ORL     0xf2,#0x40
    515            
    516            /* writing to this register starts the extra conversion */
    517            ADCCON3 = 0x86;// AVDD5 引脚  00： 64 抽取率(7 位ENOB)  0110： AIN6
   \   000003   75B686       MOV     0xb6,#-0x7a
    518            
    519            /* Wait for the conversion to be done */
    520            while (!(ADCCON1 & 0x80));
   \                     ??myApp_ReadGasLevel_0:
   \   000006   E5B4         MOV     A,0xb4
   \   000008   A2E7         MOV     C,0xE0 /* A   */.7
   \   00000A   50FA         JNC     ??myApp_ReadGasLevel_0
    521            
    522            /* Disable channel after done conversion */
    523            ADCCFG &= (0x40 ^ 0xFF); //按位异或。如1010^1111=0101（二进制）
   \   00000C   53F2BF       ANL     0xf2,#0xbf
    524            
    525            /* Read the result */
    526            reading = ADCL;
   \   00000F   E5BA         MOV     A,0xba
    527            reading |= (int16) (ADCH << 8); 
    528            
    529            reading >>= 8;
    530            //HalUARTWrite(0,"%d\r\n", reading);       
    531            return (reading);
   \   000011   E5BB         MOV     A,0xbb
   \   000013   FA           MOV     R2,A
   \   000014   E4           CLR     A
   \   000015   FB           MOV     R3,A
   \   000016   02....       LJMP    ?BRET
   \   000019                REQUIRE ADCCFG
   \   000019                REQUIRE ADCCON3
   \   000019                REQUIRE ADCCON1
   \   000019                REQUIRE ADCL
   \   000019                REQUIRE ADCH
    532          }
    533          /*********************************************************************
    534          读红外传感器
    535          */

   \                                 In  segment BANKED_CODE, align 1, keep-with-next
    536          char myApp_ReadHongWai( void )
   \                     myApp_ReadHongWai:
    537          {
   \   000000   74F7         MOV     A,#-0x9
   \   000002   12....       LCALL   ?BANKED_ENTER_XDATA
   \   000005                ; Saved register size: 9
   \   000005                ; Auto size: 0
    538             char state;
    539          
    540            if(DATA_PIN == 1)
   \   000005   A285         MOV     C,0x80.5
   \   000007   5015         JNC     ??myApp_ReadHongWai_0
    541            { 
    542              MicroWait (10000);     // Wait 10ms
   \   000009                ; Setup parameters for call to function Onboard_wait
   \   000009   7A10         MOV     R2,#0x10
   \   00000B   7B27         MOV     R3,#0x27
   \   00000D   12....       LCALL   ??Onboard_wait?relay
    543              if(DATA_PIN == 1)
   \   000010   A285         MOV     C,0x80.5
   \   000012   5015         JNC     ??myApp_ReadHongWai_1
    544              {     
    545                state = '8';       //有人进入
   \   000014   7E38         MOV     R6,#0x38
    546                //HalUARTWrite(0,"insecurity\n", 10);                //串口显示
    547                HalLcdWriteString( "insecurity", HAL_LCD_LINE_3 ); //LCD显示 
   \   000016                ; Setup parameters for call to function HalLcdWriteString
   \   000016   7903         MOV     R1,#0x3
   \   000018   7A..         MOV     R2,#`?<Constant "insecurity">` & 0xff
   \   00001A   7B..         MOV     R3,#(`?<Constant "insecurity">` >> 8) & 0xff
   \   00001C   8008         SJMP    ??myApp_ReadHongWai_2
    548              }
    549            }  
    550            else 
    551            {  
    552              state = '9';      
   \                     ??myApp_ReadHongWai_0:
   \   00001E   7E39         MOV     R6,#0x39
    553             // HalUARTWrite(0,"security\n", 9);                     //串口显示
    554              HalLcdWriteString( "security", HAL_LCD_LINE_3 );     //LCD显示    
   \   000020                ; Setup parameters for call to function HalLcdWriteString
   \   000020   7903         MOV     R1,#0x3
   \   000022   7A..         MOV     R2,#`?<Constant "security">` & 0xff
   \   000024   7B..         MOV     R3,#(`?<Constant "security">` >> 8) & 0xff
   \                     ??myApp_ReadHongWai_2:
   \   000026   12....       LCALL   ??HalLcdWriteString?relay
    555            }  
    556             
    557            return (state);
   \                     ??myApp_ReadHongWai_1:
   \   000029   EE           MOV     A,R6
   \   00002A   F9           MOV     R1,A
   \   00002B   7F01         MOV     R7,#0x1
   \   00002D   02....       LJMP    ?BANKED_LEAVE_XDATA
   \   000030                REQUIRE _A_P0
    558          }
    559          /*********************************************************************
    560          读温度传感器
    561          */

   \                                 In  segment BANKED_CODE, align 1, keep-with-next
    562          void myApp_ReadWenDu( byte *str1,byte *str2 )
   \                     myApp_ReadWenDu:
    563          {
   \   000000   74F5         MOV     A,#-0xb
   \   000002   12....       LCALL   ?BANKED_ENTER_XDATA
   \   000005                ; Saved register size: 11
   \   000005                ; Auto size: 12
   \   000005   74F4         MOV     A,#-0xc
   \   000007   12....       LCALL   ?ALLOC_XSTACK8
   \   00000A   EA           MOV     A,R2
   \   00000B   FE           MOV     R6,A
   \   00000C   EB           MOV     A,R3
   \   00000D   FF           MOV     R7,A
   \   00000E   8C..         MOV     ?V0 + 0,R4
   \   000010   8D..         MOV     ?V0 + 1,R5
    564           byte str[2];
    565           char strTemp[10];
    566            byte temp;
    567          
    568          
    569            temp = ReadDs18B20();                //读取温度数据
   \   000012                ; Setup parameters for call to function ReadDs18B20
   \   000012   12....       LCALL   ??ReadDs18B20?relay
   \   000015   E9           MOV     A,R1
   \   000016   F8           MOV     R0,A
    570            str[0] = temp/10+48;
   \   000017   75F00A       MOV     B,#0xa
   \   00001A   84           DIV     AB
   \   00001B   12....       LCALL   ?Subroutine4 & 0xFFFF
   \                     ??CrossCallReturnLabel_3:
   \   00001E   F0           MOVX    @DPTR,A
    571            str[1] = temp%10+48;
   \   00001F   E8           MOV     A,R0
   \   000020   75F00A       MOV     B,#0xa
   \   000023   84           DIV     AB
   \   000024   E5F0         MOV     A,B
   \   000026   2430         ADD     A,#0x30
   \   000028   C0E0         PUSH    A
   \   00002A   7401         MOV     A,#0x1
   \   00002C   12....       LCALL   ?XSTACK_DISP0_8
   \   00002F   D0E0         POP     A
   \   000031   F0           MOVX    @DPTR,A
    572            *str1 = str[0];
   \   000032   85..82       MOV     DPL,?XSP + 0
   \   000035   85..83       MOV     DPH,?XSP + 1
   \   000038   E0           MOVX    A,@DPTR
   \   000039   8E82         MOV     DPL,R6
   \   00003B   8F83         MOV     DPH,R7
   \   00003D   F0           MOVX    @DPTR,A
    573            *str2 = str[1];  
   \   00003E   7401         MOV     A,#0x1
   \   000040   12....       LCALL   ?XSTACK_DISP0_8
   \   000043   E0           MOVX    A,@DPTR
   \   000044   85..82       MOV     DPL,?V0 + 0
   \   000047   85..83       MOV     DPH,?V0 + 1
   \   00004A   F0           MOVX    @DPTR,A
    574            osal_memcpy(strTemp, "TEMP:", 5);
   \   00004B                ; Setup parameters for call to function osal_memcpy
   \   00004B   75....       MOV     ?V0 + 0,#`?<Constant "TEMP:">` & 0xff
   \   00004E   75....       MOV     ?V0 + 1,#(`?<Constant "TEMP:">` >> 8) & 0xff
   \   000051   75..00       MOV     ?V0 + 2,#0x0
   \   000054   78..         MOV     R0,#?V0 + 0
   \   000056   12....       LCALL   ?PUSH_XSTACK_I_THREE
   \   000059   7C05         MOV     R4,#0x5
   \   00005B   7D00         MOV     R5,#0x0
   \   00005D   EC           MOV     A,R4
   \   00005E   12....       LCALL   ?XSTACK_DISP0_8
   \   000061   AA82         MOV     R2,DPL
   \   000063   AB83         MOV     R3,DPH
   \   000065   12....       LCALL   ??osal_memcpy?relay
   \   000068   7403         MOV     A,#0x3
   \   00006A   12....       LCALL   ?DEALLOC_XSTACK8
    575            osal_memcpy(&strTemp[5], str, 5);
   \   00006D                ; Setup parameters for call to function osal_memcpy
   \   00006D   85..82       MOV     DPL,?XSP + 0
   \   000070   85..83       MOV     DPH,?XSP + 1
   \   000073   A982         MOV     R1,DPL
   \   000075   AA83         MOV     R2,DPH
   \   000077   89..         MOV     ?V0 + 0,R1
   \   000079   8A..         MOV     ?V0 + 1,R2
   \   00007B   78..         MOV     R0,#?V0 + 0
   \   00007D   12....       LCALL   ?PUSH_XSTACK_I_THREE
   \   000080   7C05         MOV     R4,#0x5
   \   000082   7D00         MOV     R5,#0x0
   \   000084   740A         MOV     A,#0xa
   \   000086   12....       LCALL   ?XSTACK_DISP0_8
   \   000089   AA82         MOV     R2,DPL
   \   00008B   AB83         MOV     R3,DPH
   \   00008D   12....       LCALL   ??osal_memcpy?relay
   \   000090   7403         MOV     A,#0x3
   \   000092   12....       LCALL   ?DEALLOC_XSTACK8
    576            HalLcdWriteString(strTemp, HAL_LCD_LINE_3); //LCD显示
   \   000095                ; Setup parameters for call to function HalLcdWriteString
   \   000095   7903         MOV     R1,#0x3
   \   000097   7402         MOV     A,#0x2
   \   000099   12....       LCALL   ?XSTACK_DISP0_8
   \   00009C   AA82         MOV     R2,DPL
   \   00009E   AB83         MOV     R3,DPH
   \   0000A0   12....       LCALL   ??HalLcdWriteString?relay
    577             
    578            
    579          }
   \   0000A3   740C         MOV     A,#0xc
   \   0000A5   12....       LCALL   ?DEALLOC_XSTACK8
   \   0000A8   02....       LJMP    ?Subroutine0 & 0xFFFF

   \                                 In  segment BANK_RELAYS, align 1
   \                     ??SampleApp_Init?relay:
   \   000000   12....       LCALL   ?BDISPATCH
   \   000003   ......       DC24    SampleApp_Init

   \                                 In  segment BANK_RELAYS, align 1
   \                     ??SampleApp_ProcessEvent?relay:
   \   000000   12....       LCALL   ?BDISPATCH
   \   000003   ......       DC24    SampleApp_ProcessEvent

   \                                 In  segment BANK_RELAYS, align 1
   \                     ??SampleApp_HandleKeys?relay:
   \   000000   12....       LCALL   ?BDISPATCH
   \   000003   ......       DC24    SampleApp_HandleKeys

   \                                 In  segment BANK_RELAYS, align 1
   \                     ??SampleApp_MessageMSGCB?relay:
   \   000000   12....       LCALL   ?BDISPATCH
   \   000003   ......       DC24    SampleApp_MessageMSGCB

   \                                 In  segment BANK_RELAYS, align 1
   \                     ??SampleApp_SendPeriodicMessage?relay:
   \   000000   12....       LCALL   ?BDISPATCH
   \   000003   ......       DC24    SampleApp_SendPeriodicMessage

   \                                 In  segment BANK_RELAYS, align 1
   \                     ??SampleApp_SendFlashMessage?relay:
   \   000000   12....       LCALL   ?BDISPATCH
   \   000003   ......       DC24    SampleApp_SendFlashMessage

   \                                 In  segment BANK_RELAYS, align 1
   \                     ??myApp_ReadGasLevel?relay:
   \   000000   12....       LCALL   ?BDISPATCH
   \   000003   ......       DC24    myApp_ReadGasLevel

   \                                 In  segment BANK_RELAYS, align 1
   \                     ??myApp_ReadHongWai?relay:
   \   000000   12....       LCALL   ?BDISPATCH
   \   000003   ......       DC24    myApp_ReadHongWai

   \                                 In  segment BANK_RELAYS, align 1
   \                     ??myApp_ReadWenDu?relay:
   \   000000   12....       LCALL   ?BDISPATCH
   \   000003   ......       DC24    myApp_ReadWenDu

   \                                 In  segment XDATA_ROM_C, align 1
   \                     `?<Constant "UartInit OK\\n">`:
   \   000000   55617274     DB "UartInit OK\012"
   \            496E6974
   \            204F4B0A
   \            00      

   \                                 In  segment XDATA_ROM_C, align 1
   \                     `?<Constant "Group 1">`:
   \   000000   47726F75     DB "Group 1"
   \            70203100

   \                                 In  segment XDATA_ROM_C, align 1
   \                     `?<Constant "SampleApp">`:
   \   000000   53616D70     DB "SampleApp"
   \            6C654170
   \            7000    

   \                                 In  segment XDATA_ROM_C, align 1
   \                     `?<Constant "MQ2&&HongWai&&WenDu:">`:
   \   000000   4D513226     DB "MQ2&&HongWai&&WenDu:"
   \            26486F6E
   \            67576169
   \            26265765
   \            6E44753A
   \            00      

   \                                 In  segment XDATA_ROM_C, align 1
   \                     `?<Constant "\\n">`:
   \   000000   0A00         DB "\012"

   \                                 In  segment XDATA_ROM_C, align 1
   \                     `?<Constant "insecurity">`:
   \   000000   696E7365     DB "insecurity"
   \            63757269
   \            747900  

   \                                 In  segment XDATA_ROM_C, align 1
   \                     `?<Constant "security">`:
   \   000000   73656375     DB "security"
   \            72697479
   \            00      

   \                                 In  segment XDATA_ROM_C, align 1
   \                     `?<Constant "TEMP:">`:
   \   000000   54454D50     DB "TEMP:"
   \            3A00    

   Maximum stack usage in bytes:

     Function                       ISTACK PSTACK XSTACK
     --------                       ------ ------ ------
     SampleApp_HandleKeys               0      0     22
       -> SampleApp_SendFlashMessage
                                        0      0     20
       -> aps_FindGroup                 0      0     20
       -> aps_RemoveGroup               0      0     20
       -> aps_AddGroup                  0      0     20
     SampleApp_Init                     0      0     14
       -> MT_UartInit                   0      0     22
       -> MT_UartRegisterTaskID         0      0     22
       -> HalUARTWrite                  0      0     22
       -> afRegister                    0      0     22
       -> RegisterForKeys               0      0     22
       -> osal_memcpy                   0      0     28
       -> aps_AddGroup                  0      0     22
       -> HalLcdWriteString             0      0     22
     SampleApp_MessageMSGCB             0      0     24
       -> HalUARTWrite                  0      0     24
       -> HalUARTWrite                  0      0     24
       -> HalUARTWrite                  0      0     24
       -> HalLedBlink                   0      0     24
     SampleApp_ProcessEvent             0      0     12
       -> osal_msg_receive              0      0     24
       -> osal_start_timerEx            0      0     24
       -> osal_msg_deallocate           0      0     24
       -> osal_msg_receive              0      0     24
       -> SampleApp_HandleKeys          0      0     24
       -> SampleApp_MessageMSGCB        0      0     24
       -> SampleApp_SendPeriodicMessage
                                        0      0     24
       -> osal_rand                     0      0     24
       -> osal_start_timerEx            0      0     24
     SampleApp_SendFlashMessage         1      0     32
       -> AF_DataRequest                0      0     44
     SampleApp_SendPeriodicMessage      1      0     39
       -> myApp_ReadGasLevel            0      0     36
       -> myApp_ReadWenDu               0      0     36
       -> AF_DataRequest                0      0     54
     myApp_ReadGasLevel                 0      0     18
     myApp_ReadHongWai                  0      0      9
       -> Onboard_wait                  0      0     18
       -> HalLcdWriteString             0      0     18
       -> HalLcdWriteString             0      0     18
     myApp_ReadWenDu                    1      0     44
       -> ReadDs18B20                   0      0     46
       -> osal_memcpy                   0      0     52
       -> osal_memcpy                   0      0     52
       -> HalLcdWriteString             0      0     46


   Segment part sizes:

     Function/Label                        Bytes
     --------------                        -----
     _A_P0                                    1
     ADCCON1                                  1
     ADCCON3                                  1
     ADCL                                     1
     ADCH                                     1
     ADCCFG                                   1
     P0SEL                                    1
     P0DIR                                    1
     SampleApp_ClusterList                    4
     SampleApp_SimpleDesc                    12
     SampleApp_epDesc                         6
     SampleApp_TaskID                         1
     SampleApp_NwkState                       1
     SampleApp_TransID                        1
     SampleApp_Periodic_DstAddr              12
     SampleApp_Flash_DstAddr                 12
     SampleApp_Group                         18
     SampleAppPeriodicCounter                 1
     SampleAppFlashCounter                    1
     SampleApp_Init                         188
     ?Subroutine0                             5
     SampleApp_ProcessEvent                 171
     ?Subroutine1                             5
     SampleApp_HandleKeys                    62
     ??Subroutine5_0                          5
     SampleApp_MessageMSGCB                 165
     SampleApp_SendPeriodicMessage          198
     ?Subroutine2                             3
     ?Subroutine3                            10
     ?Subroutine4                             9
     SampleApp_SendFlashMessage             118
     myApp_ReadGasLevel                      25
     myApp_ReadHongWai                       48
     myApp_ReadWenDu                        171
     ??SampleApp_Init?relay                   6
     ??SampleApp_ProcessEvent?relay           6
     ??SampleApp_HandleKeys?relay             6
     ??SampleApp_MessageMSGCB?relay           6
     ??SampleApp_SendPeriodicMessage?relay    6
     ??SampleApp_SendFlashMessage?relay       6
     ??myApp_ReadGasLevel?relay               6
     ??myApp_ReadHongWai?relay                6
     ??myApp_ReadWenDu?relay                  6
     ?<Constant "UartInit OK\n">             13
     ?<Constant "Group 1">                    8
     ?<Constant "SampleApp">                 10
     ?<Constant "MQ2&&HongWai&&WenDu:">      21
     ?<Constant "\n">                         2
     ?<Constant "insecurity">                11
     ?<Constant "security">                   9
     ?<Constant "TEMP:">                      6

 
 1 183 bytes in segment BANKED_CODE
    54 bytes in segment BANK_RELAYS
     8 bytes in segment SFR_AN
    96 bytes in segment XDATA_ROM_C
    53 bytes in segment XDATA_Z
 
 1 237 bytes of CODE  memory
    96 bytes of CONST memory
     0 bytes of DATA  memory (+ 8 bytes shared)
    53 bytes of XDATA memory

Errors: none
Warnings: 1
